; Function Attrs: mustprogress nofree norecurse nosync nounwind willreturn memory(read, inaccessiblemem: none) uwtable
define noundef zeroext i1 @_ZNK2cv4gapi5fluid4View4Priv5readyEv(ptr noundef nonnull readonly align 8 captures(none) dereferenceable(108) %0) local_unnamed_addr #7 align 2 {
  %2 = getelementptr inbounds nuw i8, ptr %0, i64 88
  %3 = load ptr, ptr %2, align 8, !tbaa !88
  %4 = load ptr, ptr %3, align 8, !tbaa !89
  %5 = getelementptr inbounds nuw i8, ptr %4, i64 176
  %6 = load i32, ptr %5, align 4, !tbaa !110
  %7 = getelementptr inbounds nuw i8, ptr %4, i64 128
  %8 = load i8, ptr %7, align 8, !tbaa !111, !range !112, !noundef !113
  %9 = trunc nuw i8 %8 to i1
  br i1 %9, label %10, label %15

10:                                               ; preds = %1
  %11 = getelementptr inbounds nuw i8, ptr %4, i64 160
  %12 = load ptr, ptr %11, align 8, !tbaa !114
  %13 = getelementptr inbounds nuw i8, ptr %12, i64 16
  %14 = load i32, ptr %13, align 8, !tbaa !74
  br label %_ZNK2cv4gapi5fluid6Buffer10linesReadyEv.exit

15:                                               ; preds = %1
  %16 = getelementptr inbounds nuw i8, ptr %4, i64 132
  %17 = load i32, ptr %16, align 4, !tbaa !115
  %18 = sub nsw i32 %17, %6
  %19 = getelementptr inbounds nuw i8, ptr %4, i64 184
  %20 = load i32, ptr %19, align 4, !tbaa !116
  %.sroa.speculated.i.i = tail call i32 @llvm.smin.i32(i32 %20, i32 %18)
  br label %_ZNK2cv4gapi5fluid6Buffer10linesReadyEv.exit

_ZNK2cv4gapi5fluid6Buffer10linesReadyEv.exit:     ; preds = %10, %15
  %.0.i.i = phi i32 [ %14, %10 ], [ %.sroa.speculated.i.i, %15 ]
  %21 = add nsw i32 %.0.i.i, %6
  %22 = getelementptr inbounds nuw i8, ptr %3, i64 8
  %23 = load ptr, ptr %22, align 8, !tbaa !117
  %24 = getelementptr inbounds nuw i8, ptr %23, i64 36
  %25 = load i32, ptr %24, align 4, !tbaa !126
  %26 = icmp eq i32 %21, %25
  %27 = getelementptr inbounds nuw i8, ptr %0, i64 104
  %28 = load i32, ptr %27, align 8
  %29 = select i1 %26, i32 %28, i32 0
  %.0 = add i32 %28, %21
  %30 = add i32 %.0, %29
  %31 = getelementptr inbounds nuw i8, ptr %0, i64 96
  %32 = load i32, ptr %31, align 8, !tbaa !109
  %33 = getelementptr inbounds nuw i8, ptr %0, i64 100
  %34 = load i32, ptr %33, align 4, !tbaa !85
  %35 = add nsw i32 %34, %32
  %36 = icmp sge i32 %30, %35
  ret i1 %36
}